; Function Attrs: mustprogress nounwind uwtable
define hidden void @_ZN7nanogui7TextureD0Ev(ptr noundef nonnull align 8 dereferenceable(40) %0) unnamed_addr #3 align 2 personality ptr @__gxx_personality_v0 {
  store ptr getelementptr inbounds ({ [4 x ptr] }, ptr @_ZTVN7nanogui7TextureE, i64 0, i32 0, i64 2), ptr %0, align 8
  %2 = getelementptr inbounds i8, ptr %0, i64 32
  invoke void @glDeleteTextures(i32 noundef 1, ptr noundef nonnull %2)
          to label %3 unwind label %5

3:                                                ; preds = %1
  %4 = getelementptr inbounds i8, ptr %0, i64 36
  invoke void @glDeleteRenderbuffers(i32 noundef 1, ptr noundef nonnull %4)
          to label %_ZN7nanogui7TextureD2Ev.exit unwind label %5

5:                                                ; preds = %3, %1
  %6 = landingpad { ptr, i32 }
          catch ptr null
  %7 = extractvalue { ptr, i32 } %6, 0
  tail call void @__clang_call_terminate(ptr %7) #10
  unreachable

_ZN7nanogui7TextureD2Ev.exit:                     ; preds = %3
  tail call void @_ZN7nanogui6ObjectD2Ev(ptr noundef nonnull align 8 dereferenceable(12) %0) #8
  tail call void @_ZdlPv(ptr noundef nonnull %0) #11
  ret void
}